target datalayout = "e-m:e-p270:32:32-p271:32:32-p272:64:64-i64:64-i128:128-f80:128-n8:16:32:64-S128"
target triple = "x86_64-pc-linux-gnu"

%struct._diam_dictionary_t = type { ptr, ptr, ptr, ptr }
%struct._avp_type_t = type { ptr, ptr, i32, i32, ptr }
%struct._diam_avp_t = type { i32, ptr, ptr, i32, i32, ptr }

@dictionary = internal global %struct._diam_dictionary_t zeroinitializer, align 8
@.str.172 = private unnamed_addr constant [95 x i8] c"Diameter Dictionary: AVP '%s' (of type AppId) has a list of values but the list won't be used\0A\00", align 1

; Function Attrs: null_pointer_is_valid sspstrong uwtable
define internal ptr @build_appid_avp(ptr noundef %0, i32 noundef %1, ptr noundef %2, ptr noundef %3, ptr noundef %4, ptr noundef %5) #0 {
  %7 = alloca ptr, align 8
  %8 = alloca i32, align 4
  %9 = alloca ptr, align 8
  %10 = alloca ptr, align 8
  %11 = alloca ptr, align 8
  %12 = alloca ptr, align 8
  %13 = alloca ptr, align 8
  %14 = alloca i32, align 4
  store ptr %0, ptr %7, align 8
  store i32 %1, ptr %8, align 4
  store ptr %2, ptr %9, align 8
  store ptr %3, ptr %10, align 8
  store ptr %4, ptr %11, align 8
  store ptr %5, ptr %12, align 8
  call void @llvm.lifetime.start.p0(i64 8, ptr %13) #14
  call void @llvm.lifetime.start.p0(i64 4, ptr %14) #14
  %15 = call ptr @wmem_epan_scope()
  %16 = call noalias ptr @wmem_alloc0(ptr noundef %15, i64 noundef 40) #15
  store ptr %16, ptr %13, align 8
  %17 = load i32, ptr %8, align 4
  %18 = load ptr, ptr %13, align 8
  %19 = getelementptr inbounds nuw %struct._diam_avp_t, ptr %18, i32 0, i32 0
  store i32 %17, ptr %19, align 8
  %20 = load ptr, ptr %9, align 8
  %21 = load ptr, ptr %13, align 8
  %22 = getelementptr inbounds nuw %struct._diam_avp_t, ptr %21, i32 0, i32 1
  store ptr %20, ptr %22, align 8
  %23 = load ptr, ptr %7, align 8
  %24 = getelementptr inbounds nuw %struct._avp_type_t, ptr %23, i32 0, i32 1
  %25 = load ptr, ptr %24, align 8
  %26 = load ptr, ptr %13, align 8
  %27 = getelementptr inbounds nuw %struct._diam_avp_t, ptr %26, i32 0, i32 2
  store ptr %25, ptr %27, align 8
  %28 = load ptr, ptr %13, align 8
  %29 = getelementptr inbounds nuw %struct._diam_avp_t, ptr %28, i32 0, i32 3
  store i32 -1, ptr %29, align 8
  %30 = load ptr, ptr %13, align 8
  %31 = getelementptr inbounds nuw %struct._diam_avp_t, ptr %30, i32 0, i32 4
  store i32 -1, ptr %31, align 4
  %32 = load ptr, ptr %11, align 8
  %33 = icmp ne ptr %32, null
  br i1 %33, label %34, label %36

34:                                               ; preds = %6
  %35 = load ptr, ptr %10, align 8
  call void (ptr, ...) @report_failure(ptr noundef @.str.172, ptr noundef %35)
  br label %36

36:                                               ; preds = %34, %6
  %37 = load ptr, ptr %7, align 8
  %38 = getelementptr inbounds nuw %struct._avp_type_t, ptr %37, i32 0, i32 3
  %39 = load i32, ptr %38, align 4
  %40 = or i32 %39, 512
  store i32 %40, ptr %14, align 4
  %41 = load ptr, ptr %13, align 8
  %42 = load ptr, ptr %10, align 8
  %43 = load ptr, ptr %7, align 8
  %44 = getelementptr inbounds nuw %struct._avp_type_t, ptr %43, i32 0, i32 2
  %45 = load i32, ptr %44, align 8
  %46 = load i32, ptr %14, align 4
  %47 = load ptr, ptr getelementptr inbounds nuw (%struct._diam_dictionary_t, ptr @dictionary, i32 0, i32 2), align 8
  call void @basic_avp_reginfo(ptr noundef %41, ptr noundef %42, i32 noundef %45, i32 noundef %46, ptr noundef %47)
  %48 = load ptr, ptr %13, align 8
  call void @llvm.lifetime.end.p0(i64 4, ptr %14) #14
  call void @llvm.lifetime.end.p0(i64 8, ptr %13) #14
  ret ptr %48
}