; Function Attrs: null_pointer_is_valid sspstrong uwtable
define internal noundef ptr @build_appid_avp(ptr noundef readonly captures(none) %0, i32 noundef %1, ptr noundef %2, ptr noundef %3, ptr noundef readnone captures(address_is_null) %4, ptr readnone captures(none) %5) #0 {
  %7 = tail call ptr @wmem_epan_scope()
  %8 = tail call noalias dereferenceable_or_null(40) ptr @wmem_alloc0(ptr noundef %7, i64 noundef 40) #15
  store i32 %1, ptr %8, align 8
  %9 = getelementptr inbounds nuw i8, ptr %8, i64 8
  store ptr %2, ptr %9, align 8
  %10 = getelementptr inbounds nuw i8, ptr %0, i64 8
  %11 = load ptr, ptr %10, align 8
  %12 = getelementptr inbounds nuw i8, ptr %8, i64 16
  store ptr %11, ptr %12, align 8
  %13 = getelementptr inbounds nuw i8, ptr %8, i64 24
  store i32 -1, ptr %13, align 8
  %14 = getelementptr inbounds nuw i8, ptr %8, i64 28
  store i32 -1, ptr %14, align 4
  %.not = icmp eq ptr %4, null
  br i1 %.not, label %16, label %15

15:                                               ; preds = %6
  tail call void (ptr, ...) @report_failure(ptr noundef nonnull @.str.172, ptr noundef %3)
  br label %16

16:                                               ; preds = %15, %6
  %17 = getelementptr inbounds nuw i8, ptr %0, i64 20
  %18 = load i32, ptr %17, align 4
  %19 = or i32 %18, 512
  %20 = getelementptr inbounds nuw i8, ptr %0, i64 16
  %21 = load i32, ptr %20, align 8
  %22 = load ptr, ptr @dictionary.2, align 8
  tail call fastcc void @basic_avp_reginfo(ptr noundef %8, ptr noundef %3, i32 noundef %21, i32 noundef %19, ptr noundef %22)
  ret ptr %8
}